; Function Attrs: mustprogress nounwind uwtable
define hidden void @_ZN4cvc58internal9CodeTimerD2Ev(ptr noundef nonnull readonly align 8 captures(none) dereferenceable(9) %this) unnamed_addr #2 align 2 personality ptr @__gxx_personality_v0 {
entry:
  %d_reentrant = getelementptr inbounds nuw i8, ptr %this, i64 8
  %0 = load i8, ptr %d_reentrant, align 8
  %tobool = trunc i8 %0 to i1
  br i1 %tobool, label %if.end, label %if.then

if.then:                                          ; preds = %entry
  %1 = load ptr, ptr %this, align 8
  %call.i = tail call i64 @_ZNSt6chrono3_V212steady_clock3nowEv() #5
  %2 = load ptr, ptr %1, align 8
  %d_start.i = getelementptr inbounds nuw i8, ptr %2, i64 24
  %retval.sroa.0.0.copyload.i1.i.i = load i64, ptr %d_start.i, align 8
  %sub.i.i.i = sub i64 %call.i, %retval.sroa.0.0.copyload.i1.i.i
  %d_duration.i = getelementptr inbounds nuw i8, ptr %2, i64 16
  %3 = load i64, ptr %d_duration.i, align 8
  %add.i.i = add nsw i64 %sub.i.i.i, %3
  store i64 %add.i.i, ptr %d_duration.i, align 8
  %4 = load ptr, ptr %1, align 8
  %d_running.i = getelementptr inbounds nuw i8, ptr %4, i64 32
  store i8 0, ptr %d_running.i, align 8
  br label %if.end

if.end:                                           ; preds = %if.then, %entry
  ret void
}